; Function Attrs: mustprogress nofree norecurse nosync nounwind willreturn memory(argmem: write) uwtable
define void @asn1_ctx_init(ptr noundef writeonly captures(none) initializes((0, 208)) %0, i32 noundef %1, i1 noundef zeroext %2, ptr noundef %3) local_unnamed_addr #0 {
  %5 = zext i1 %2 to i8
  %6 = getelementptr inbounds nuw i8, ptr %0, i64 8
  tail call void @llvm.memset.p0.i64(ptr noundef nonnull align 8 dereferenceable(208) %6, i8 0, i64 200, i1 false)
  store i32 1094931544, ptr %0, align 8
  %7 = getelementptr inbounds nuw i8, ptr %0, i64 4
  store i32 %1, ptr %7, align 4
  %8 = getelementptr inbounds nuw i8, ptr %0, i64 8
  store i8 %5, ptr %8, align 8
  %9 = getelementptr inbounds nuw i8, ptr %0, i64 16
  store ptr %3, ptr %9, align 8
  ret void
}